target datalayout = "e-m:e-p270:32:32-p271:32:32-p272:64:64-i64:64-i128:128-f80:128-n8:16:32:64-S128"
target triple = "x86_64-pc-linux-gnu"

%struct.ASN1_ITEM_st = type { i8, i64, ptr, i64, ptr, i64, ptr }

; Function Attrs: nounwind uwtable
define i32 @ossl_asn1_set_choice_selector(ptr noundef %0, i32 noundef %1, ptr noundef %2) #0 {
  %4 = alloca ptr, align 8
  %5 = alloca i32, align 4
  %6 = alloca ptr, align 8
  %7 = alloca ptr, align 8
  %8 = alloca i32, align 4
  store ptr %0, ptr %4, align 8, !tbaa !3
  store i32 %1, ptr %5, align 4, !tbaa !19
  store ptr %2, ptr %6, align 8, !tbaa !8
  call void @llvm.lifetime.start.p0(i64 8, ptr %7) #5
  call void @llvm.lifetime.start.p0(i64 4, ptr %8) #5
  %9 = load ptr, ptr %4, align 8, !tbaa !3
  %10 = load ptr, ptr %9, align 8, !tbaa !10
  %11 = load ptr, ptr %6, align 8, !tbaa !8
  %12 = getelementptr inbounds nuw %struct.ASN1_ITEM_st, ptr %11, i32 0, i32 1
  %13 = load i64, ptr %12, align 8, !tbaa !12
  %14 = getelementptr inbounds i8, ptr %10, i64 %13
  store ptr %14, ptr %7, align 8, !tbaa !17
  %15 = load ptr, ptr %7, align 8, !tbaa !17
  %16 = load i32, ptr %15, align 4, !tbaa !19
  store i32 %16, ptr %8, align 4, !tbaa !19
  %17 = load i32, ptr %5, align 4, !tbaa !19
  %18 = load ptr, ptr %7, align 8, !tbaa !17
  store i32 %17, ptr %18, align 4, !tbaa !19
  %19 = load i32, ptr %8, align 4, !tbaa !19
  call void @llvm.lifetime.end.p0(i64 4, ptr %8) #5
  call void @llvm.lifetime.end.p0(i64 8, ptr %7) #5
  ret i32 %19
}