; Function Attrs: mustprogress nofree norecurse nosync nounwind willreturn memory(readwrite, inaccessiblemem: none) uwtable
define i32 @ossl_asn1_set_choice_selector(ptr noundef readonly captures(none) %0, i32 noundef %1, ptr noundef readonly captures(none) %2) local_unnamed_addr #2 {
  %4 = load ptr, ptr %0, align 8, !tbaa !3
  %5 = getelementptr inbounds nuw i8, ptr %2, i64 8
  %6 = load i64, ptr %5, align 8, !tbaa !8
  %7 = getelementptr inbounds i8, ptr %4, i64 %6
  %8 = load i32, ptr %7, align 4, !tbaa !13
  store i32 %1, ptr %7, align 4, !tbaa !13
  ret i32 %8
}